; Function Attrs: mustprogress uwtable
define internal fastcc noundef zeroext i1 @_ZN12_GLOBAL__N_126_isPrivateuseVariantSubtagEPKci(ptr noundef nonnull readonly captures(none) %0, i32 noundef %1) unnamed_addr #1 {
  %3 = icmp slt i32 %1, 0
  br i1 %3, label %4, label %7

4:                                                ; preds = %2
  %5 = tail call i64 @strlen(ptr noundef nonnull readonly dereferenceable(1) %0) #20
  %6 = trunc i64 %5 to i32
  br label %7

7:                                                ; preds = %4, %2
  %.08.i = phi i32 [ %6, %4 ], [ %1, %2 ]
  %8 = add i32 %.08.i, -1
  %or.cond.i = icmp ult i32 %8, 8
  br i1 %or.cond.i, label %9, label %_ZN12_GLOBAL__N_134_isAlphaNumericStringLimitedLengthEPKciii.exit

9:                                                ; preds = %7
  %wide.trip.count.i.i = zext nneg i32 %.08.i to i64
  br label %10

10:                                               ; preds = %18, %9
  %indvars.iv.i.i = phi i64 [ 0, %9 ], [ %indvars.iv.next.i.i, %18 ]
  %11 = getelementptr inbounds nuw i8, ptr %0, i64 %indvars.iv.i.i
  %12 = load i8, ptr %11, align 1, !tbaa !15
  %13 = tail call noundef signext i8 @uprv_isASCIILetter_77(i8 noundef signext %12)
  %.not.i.i = icmp eq i8 %13, 0
  br i1 %.not.i.i, label %14, label %18

14:                                               ; preds = %10
  %15 = load i8, ptr %11, align 1, !tbaa !15
  %16 = add i8 %15, -48
  %17 = icmp ult i8 %16, 10
  br i1 %17, label %18, label %_ZN12_GLOBAL__N_134_isAlphaNumericStringLimitedLengthEPKciii.exit

18:                                               ; preds = %14, %10
  %indvars.iv.next.i.i = add nuw nsw i64 %indvars.iv.i.i, 1
  %exitcond.not.i.i = icmp eq i64 %indvars.iv.next.i.i, %wide.trip.count.i.i
  br i1 %exitcond.not.i.i, label %_ZN12_GLOBAL__N_134_isAlphaNumericStringLimitedLengthEPKciii.exit, label %10, !llvm.loop !20

_ZN12_GLOBAL__N_134_isAlphaNumericStringLimitedLengthEPKciii.exit: ; preds = %14, %18, %7
  %.0.i = phi i1 [ false, %7 ], [ false, %14 ], [ true, %18 ]
  ret i1 %.0.i
}